target datalayout = "e-m:e-p270:32:32-p271:32:32-p272:64:64-i64:64-i128:128-f80:128-n8:16:32:64-S128"
target triple = "x86_64-pc-linux-gnu"

%"struct.std::__detail::_Hash_node_base" = type { ptr }
%"struct.std::__detail::_Prime_rehash_policy" = type { float, i64 }
%"class.WasmEdge::LLVM::Context" = type { ptr }
%"class.WasmEdge::LLVM::Type" = type { ptr }
%"class.std::vector.89" = type { %"struct.std::_Vector_base.90" }
%"struct.std::_Vector_base.90" = type { %"struct.std::_Vector_base<WasmEdge::LLVM::Value, std::allocator<WasmEdge::LLVM::Value>>::_Vector_impl" }
%"struct.std::_Vector_base<WasmEdge::LLVM::Value, std::allocator<WasmEdge::LLVM::Value>>::_Vector_impl" = type { %"struct.std::_Vector_base<WasmEdge::LLVM::Value, std::allocator<WasmEdge::LLVM::Value>>::_Vector_impl_data" }
%"struct.std::_Vector_base<WasmEdge::LLVM::Value, std::allocator<WasmEdge::LLVM::Value>>::_Vector_impl_data" = type { ptr, ptr, ptr }
%"class.WasmEdge::LLVM::Value" = type { ptr }
%"struct.WasmEdge::LLVM::FunctionCallee" = type { %"class.WasmEdge::LLVM::Type", %"class.WasmEdge::LLVM::Value" }
%"class.WasmEdge::LLVM::Builder" = type { ptr }
%"class.(anonymous namespace)::FunctionCompiler" = type { ptr, %"class.WasmEdge::LLVM::Context", %"class.std::vector.170", %"class.std::vector.89", %"class.WasmEdge::LLVM::Value", %"class.WasmEdge::LLVM::Value", %"class.std::unordered_map", i8, i8, %"class.std::vector.194", %"struct.WasmEdge::LLVM::FunctionCallee", %"class.WasmEdge::LLVM::Value", %"class.WasmEdge::LLVM::Builder" }
%"class.std::vector.170" = type { %"struct.std::_Vector_base.171" }
%"struct.std::_Vector_base.171" = type { %"struct.std::_Vector_base<std::pair<WasmEdge::LLVM::Type, WasmEdge::LLVM::Value>, std::allocator<std::pair<WasmEdge::LLVM::Type, WasmEdge::LLVM::Value>>>::_Vector_impl" }
%"struct.std::_Vector_base<std::pair<WasmEdge::LLVM::Type, WasmEdge::LLVM::Value>, std::allocator<std::pair<WasmEdge::LLVM::Type, WasmEdge::LLVM::Value>>>::_Vector_impl" = type { %"struct.std::_Vector_base<std::pair<WasmEdge::LLVM::Type, WasmEdge::LLVM::Value>, std::allocator<std::pair<WasmEdge::LLVM::Type, WasmEdge::LLVM::Value>>>::_Vector_impl_data" }
%"struct.std::_Vector_base<std::pair<WasmEdge::LLVM::Type, WasmEdge::LLVM::Value>, std::allocator<std::pair<WasmEdge::LLVM::Type, WasmEdge::LLVM::Value>>>::_Vector_impl_data" = type { ptr, ptr, ptr }
%"class.std::unordered_map" = type { %"class.std::_Hashtable.175" }
%"class.std::_Hashtable.175" = type { ptr, i64, %"struct.std::__detail::_Hash_node_base", i64, %"struct.std::__detail::_Prime_rehash_policy", ptr }
%"class.std::vector.194" = type { %"struct.std::_Vector_base.195" }
%"struct.std::_Vector_base.195" = type { %"struct.std::_Vector_base<(anonymous namespace)::FunctionCompiler::Control, std::allocator<(anonymous namespace)::FunctionCompiler::Control>>::_Vector_impl" }
%"struct.std::_Vector_base<(anonymous namespace)::FunctionCompiler::Control, std::allocator<(anonymous namespace)::FunctionCompiler::Control>>::_Vector_impl" = type { %"struct.std::_Vector_base<(anonymous namespace)::FunctionCompiler::Control, std::allocator<(anonymous namespace)::FunctionCompiler::Control>>::_Vector_impl_data" }
%"struct.std::_Vector_base<(anonymous namespace)::FunctionCompiler::Control, std::allocator<(anonymous namespace)::FunctionCompiler::Control>>::_Vector_impl_data" = type { ptr, ptr, ptr }
%"class.__gnu_cxx::__normal_iterator.224" = type { ptr }

@.str.11 = private unnamed_addr constant [1 x i8] zeroinitializer, align 1

; Function Attrs: mustprogress nounwind uwtable
define linkonce_odr void @_ZSt4swapIP15LLVMOpaqueValueENSt9enable_ifIXsr6__and_ISt6__not_ISt15__is_tuple_likeIT_EESt21is_move_constructibleIS5_ESt18is_move_assignableIS5_EEE5valueEvE4typeERS5_SE_(ptr noundef nonnull align 8 dereferenceable(8) %0, ptr noundef nonnull align 8 dereferenceable(8) %1) #0 comdat {
  %3 = alloca ptr, align 8
  %4 = alloca ptr, align 8
  %5 = alloca ptr, align 8
  store ptr %0, ptr %3, align 8
  store ptr %1, ptr %4, align 8
  %6 = load ptr, ptr %3, align 8
  %7 = load ptr, ptr %6, align 8
  store ptr %7, ptr %5, align 8
  %8 = load ptr, ptr %4, align 8
  %9 = load ptr, ptr %8, align 8
  %10 = load ptr, ptr %3, align 8
  store ptr %9, ptr %10, align 8
  %11 = load ptr, ptr %5, align 8
  %12 = load ptr, ptr %4, align 8
  store ptr %11, ptr %12, align 8
  ret void
}

; Function Attrs: mustprogress nounwind uwtable
define linkonce_odr hidden void @_ZN9__gnu_cxx17__normal_iteratorIPN8WasmEdge4LLVM5ValueESt6vectorIS3_SaIS3_EEEC2ERKS4_(ptr noundef nonnull align 8 dereferenceable(8) %0, ptr noundef nonnull align 8 dereferenceable(8) %1) unnamed_addr #0 comdat align 2 {
  %3 = alloca ptr, align 8
  %4 = alloca ptr, align 8
  store ptr %0, ptr %3, align 8
  store ptr %1, ptr %4, align 8
  %5 = load ptr, ptr %3, align 8
  %6 = getelementptr inbounds %"class.__gnu_cxx::__normal_iterator.224", ptr %5, i32 0, i32 0
  %7 = load ptr, ptr %4, align 8
  %8 = load ptr, ptr %7, align 8
  store ptr %8, ptr %6, align 8
  ret void
}

; Function Attrs: mustprogress nounwind uwtable
define linkonce_odr hidden void @_ZN8WasmEdge4LLVM4swapERNS0_5ValueES2_(ptr noundef nonnull align 8 dereferenceable(8) %0, ptr noundef nonnull align 8 dereferenceable(8) %1) #0 comdat {
  %3 = alloca ptr, align 8
  %4 = alloca ptr, align 8
  store ptr %0, ptr %3, align 8
  store ptr %1, ptr %4, align 8
  %5 = load ptr, ptr %3, align 8
  %6 = getelementptr inbounds %"class.WasmEdge::LLVM::Value", ptr %5, i32 0, i32 0
  %7 = load ptr, ptr %4, align 8
  %8 = getelementptr inbounds %"class.WasmEdge::LLVM::Value", ptr %7, i32 0, i32 0
  call void @_ZSt4swapIP15LLVMOpaqueValueENSt9enable_ifIXsr6__and_ISt6__not_ISt15__is_tuple_likeIT_EESt21is_move_constructibleIS5_ESt18is_move_assignableIS5_EEE5valueEvE4typeERS5_SE_(ptr noundef nonnull align 8 dereferenceable(8) %6, ptr noundef nonnull align 8 dereferenceable(8) %8) #12
  ret void
}

; Function Attrs: mustprogress nounwind uwtable
define linkonce_odr hidden void @_ZN8WasmEdge4LLVM5ValueC2EP15LLVMOpaqueValue(ptr noundef nonnull align 8 dereferenceable(8) %0, ptr noundef %1) unnamed_addr #0 comdat align 2 {
  %3 = alloca ptr, align 8
  %4 = alloca ptr, align 8
  store ptr %0, ptr %3, align 8
  store ptr %1, ptr %4, align 8
  %5 = load ptr, ptr %3, align 8
  %6 = getelementptr inbounds %"class.WasmEdge::LLVM::Value", ptr %5, i32 0, i32 0
  %7 = load ptr, ptr %4, align 8
  store ptr %7, ptr %6, align 8
  ret void
}

; Function Attrs: mustprogress nounwind uwtable
define linkonce_odr hidden noundef nonnull align 8 dereferenceable(8) ptr @_ZN8WasmEdge4LLVM4Type6unwrapEv(ptr noundef nonnull align 8 dereferenceable(8) %0) #0 comdat align 2 {
  %2 = alloca ptr, align 8
  store ptr %0, ptr %2, align 8
  %3 = load ptr, ptr %2, align 8
  %4 = getelementptr inbounds %"class.WasmEdge::LLVM::Type", ptr %3, i32 0, i32 0
  ret ptr %4
}

; Function Attrs: mustprogress nounwind uwtable
define linkonce_odr hidden noundef nonnull align 8 dereferenceable(8) ptr @_ZN8WasmEdge4LLVM5Value6unwrapEv(ptr noundef nonnull align 8 dereferenceable(8) %0) #0 comdat align 2 {
  %2 = alloca ptr, align 8
  store ptr %0, ptr %2, align 8
  %3 = load ptr, ptr %2, align 8
  %4 = getelementptr inbounds %"class.WasmEdge::LLVM::Value", ptr %3, i32 0, i32 0
  ret ptr %4
}

; Function Attrs: mustprogress nounwind uwtable
define linkonce_odr hidden noundef nonnull align 8 dereferenceable(8) ptr @_ZNK9__gnu_cxx17__normal_iteratorIPN8WasmEdge4LLVM5ValueESt6vectorIS3_SaIS3_EEEdeEv(ptr noundef nonnull align 8 dereferenceable(8) %0) #0 comdat align 2 {
  %2 = alloca ptr, align 8
  store ptr %0, ptr %2, align 8
  %3 = load ptr, ptr %2, align 8
  %4 = getelementptr inbounds %"class.__gnu_cxx::__normal_iterator.224", ptr %3, i32 0, i32 0
  %5 = load ptr, ptr %4, align 8
  ret ptr %5
}

; Function Attrs: mustprogress nounwind uwtable
define linkonce_odr hidden ptr @_ZNK9__gnu_cxx17__normal_iteratorIPN8WasmEdge4LLVM5ValueESt6vectorIS3_SaIS3_EEEmiEl(ptr noundef nonnull align 8 dereferenceable(8) %0, i64 noundef %1) #0 comdat align 2 {
  %3 = alloca %"class.__gnu_cxx::__normal_iterator.224", align 8
  %4 = alloca ptr, align 8
  %5 = alloca i64, align 8
  %6 = alloca ptr, align 8
  store ptr %0, ptr %4, align 8
  store i64 %1, ptr %5, align 8
  %7 = load ptr, ptr %4, align 8
  %8 = getelementptr inbounds %"class.__gnu_cxx::__normal_iterator.224", ptr %7, i32 0, i32 0
  %9 = load ptr, ptr %8, align 8
  %10 = load i64, ptr %5, align 8
  %11 = sub i64 0, %10
  %12 = getelementptr inbounds %"class.WasmEdge::LLVM::Value", ptr %9, i64 %11
  store ptr %12, ptr %6, align 8
  call void @_ZN9__gnu_cxx17__normal_iteratorIPN8WasmEdge4LLVM5ValueESt6vectorIS3_SaIS3_EEEC2ERKS4_(ptr noundef nonnull align 8 dereferenceable(8) %3, ptr noundef nonnull align 8 dereferenceable(8) %6) #12
  %13 = getelementptr inbounds %"class.__gnu_cxx::__normal_iterator.224", ptr %3, i32 0, i32 0
  %14 = load ptr, ptr %13, align 8
  ret ptr %14
}

; Function Attrs: mustprogress nounwind uwtable
define linkonce_odr hidden ptr @_ZNSt6vectorIN8WasmEdge4LLVM5ValueESaIS2_EE3endEv(ptr noundef nonnull align 8 dereferenceable(24) %0) #0 comdat align 2 {
  %2 = alloca %"class.__gnu_cxx::__normal_iterator.224", align 8
  %3 = alloca ptr, align 8
  store ptr %0, ptr %3, align 8
  %4 = load ptr, ptr %3, align 8
  %5 = getelementptr inbounds %"struct.std::_Vector_base.90", ptr %4, i32 0, i32 0
  %6 = getelementptr inbounds %"struct.std::_Vector_base<WasmEdge::LLVM::Value, std::allocator<WasmEdge::LLVM::Value>>::_Vector_impl_data", ptr %5, i32 0, i32 1
  call void @_ZN9__gnu_cxx17__normal_iteratorIPN8WasmEdge4LLVM5ValueESt6vectorIS3_SaIS3_EEEC2ERKS4_(ptr noundef nonnull align 8 dereferenceable(8) %2, ptr noundef nonnull align 8 dereferenceable(8) %6) #12
  %7 = getelementptr inbounds %"class.__gnu_cxx::__normal_iterator.224", ptr %2, i32 0, i32 0
  %8 = load ptr, ptr %7, align 8
  ret ptr %8
}

; Function Attrs: mustprogress nounwind uwtable
define linkonce_odr hidden void @_ZN8WasmEdge4LLVM7Builder10createZExtENS0_5ValueENS0_4TypeEPKc(ptr dead_on_unwind noalias writable sret(%"class.WasmEdge::LLVM::Value") align 8 %0, ptr noundef nonnull align 8 dereferenceable(8) %1, ptr noundef %2, ptr noundef %3, ptr noundef %4) #0 comdat align 2 {
  %6 = alloca ptr, align 8
  %7 = alloca ptr, align 8
  %8 = alloca ptr, align 8
  %9 = alloca ptr, align 8
  %10 = alloca ptr, align 8
  store ptr %0, ptr %6, align 8
  store ptr %1, ptr %7, align 8
  store ptr %2, ptr %8, align 8
  store ptr %3, ptr %9, align 8
  store ptr %4, ptr %10, align 8
  %11 = load ptr, ptr %7, align 8
  %12 = getelementptr inbounds %"class.WasmEdge::LLVM::Builder", ptr %11, i32 0, i32 0
  %13 = load ptr, ptr %12, align 8
  %14 = call noundef nonnull align 8 dereferenceable(8) ptr @_ZN8WasmEdge4LLVM5Value6unwrapEv(ptr noundef nonnull align 8 dereferenceable(8) %2) #12
  %15 = load ptr, ptr %14, align 8
  %16 = call noundef nonnull align 8 dereferenceable(8) ptr @_ZN8WasmEdge4LLVM4Type6unwrapEv(ptr noundef nonnull align 8 dereferenceable(8) %3) #12
  %17 = load ptr, ptr %16, align 8
  %18 = load ptr, ptr %10, align 8
  %19 = call ptr @LLVMBuildZExt(ptr noundef %13, ptr noundef %15, ptr noundef %17, ptr noundef %18)
  call void @_ZN8WasmEdge4LLVM5ValueC2EP15LLVMOpaqueValue(ptr noundef nonnull align 8 dereferenceable(8) %0, ptr noundef %19) #12
  ret void
}

; Function Attrs: mustprogress nounwind uwtable
define linkonce_odr hidden noundef nonnull align 8 dereferenceable(8) ptr @_ZN8WasmEdge4LLVM5ValueaSEOS1_(ptr noundef nonnull align 8 dereferenceable(8) %0, ptr noundef nonnull align 8 dereferenceable(8) %1) #0 comdat align 2 {
  %3 = alloca ptr, align 8
  %4 = alloca ptr, align 8
  store ptr %0, ptr %3, align 8
  store ptr %1, ptr %4, align 8
  %5 = load ptr, ptr %3, align 8
  %6 = load ptr, ptr %4, align 8
  call void @_ZN8WasmEdge4LLVM4swapERNS0_5ValueES2_(ptr noundef nonnull align 8 dereferenceable(8) %5, ptr noundef nonnull align 8 dereferenceable(8) %6) #12
  ret ptr %5
}

; Function Attrs: mustprogress nounwind uwtable
define linkonce_odr hidden void @_ZN8WasmEdge4LLVM7Builder10createSExtENS0_5ValueENS0_4TypeEPKc(ptr dead_on_unwind noalias writable sret(%"class.WasmEdge::LLVM::Value") align 8 %0, ptr noundef nonnull align 8 dereferenceable(8) %1, ptr noundef %2, ptr noundef %3, ptr noundef %4) #0 comdat align 2 {
  %6 = alloca ptr, align 8
  %7 = alloca ptr, align 8
  %8 = alloca ptr, align 8
  %9 = alloca ptr, align 8
  %10 = alloca ptr, align 8
  store ptr %0, ptr %6, align 8
  store ptr %1, ptr %7, align 8
  store ptr %2, ptr %8, align 8
  store ptr %3, ptr %9, align 8
  store ptr %4, ptr %10, align 8
  %11 = load ptr, ptr %7, align 8
  %12 = getelementptr inbounds %"class.WasmEdge::LLVM::Builder", ptr %11, i32 0, i32 0
  %13 = load ptr, ptr %12, align 8
  %14 = call noundef nonnull align 8 dereferenceable(8) ptr @_ZN8WasmEdge4LLVM5Value6unwrapEv(ptr noundef nonnull align 8 dereferenceable(8) %2) #12
  %15 = load ptr, ptr %14, align 8
  %16 = call noundef nonnull align 8 dereferenceable(8) ptr @_ZN8WasmEdge4LLVM4Type6unwrapEv(ptr noundef nonnull align 8 dereferenceable(8) %3) #12
  %17 = load ptr, ptr %16, align 8
  %18 = load ptr, ptr %10, align 8
  %19 = call ptr @LLVMBuildSExt(ptr noundef %13, ptr noundef %15, ptr noundef %17, ptr noundef %18)
  call void @_ZN8WasmEdge4LLVM5ValueC2EP15LLVMOpaqueValue(ptr noundef nonnull align 8 dereferenceable(8) %0, ptr noundef %19) #12
  ret void
}

; Function Attrs: mustprogress nounwind uwtable
define linkonce_odr hidden noundef nonnull align 8 dereferenceable(8) ptr @_ZNSt6vectorIN8WasmEdge4LLVM5ValueESaIS2_EE4backEv(ptr noundef nonnull align 8 dereferenceable(24) %0) #0 comdat align 2 {
  %2 = alloca ptr, align 8
  %3 = alloca %"class.__gnu_cxx::__normal_iterator.224", align 8
  %4 = alloca %"class.__gnu_cxx::__normal_iterator.224", align 8
  store ptr %0, ptr %2, align 8
  %5 = load ptr, ptr %2, align 8
  %6 = call ptr @_ZNSt6vectorIN8WasmEdge4LLVM5ValueESaIS2_EE3endEv(ptr noundef nonnull align 8 dereferenceable(24) %5) #12
  %7 = getelementptr inbounds %"class.__gnu_cxx::__normal_iterator.224", ptr %4, i32 0, i32 0
  store ptr %6, ptr %7, align 8
  %8 = call ptr @_ZNK9__gnu_cxx17__normal_iteratorIPN8WasmEdge4LLVM5ValueESt6vectorIS3_SaIS3_EEEmiEl(ptr noundef nonnull align 8 dereferenceable(8) %4, i64 noundef 1) #12
  %9 = getelementptr inbounds %"class.__gnu_cxx::__normal_iterator.224", ptr %3, i32 0, i32 0
  store ptr %8, ptr %9, align 8
  %10 = call noundef nonnull align 8 dereferenceable(8) ptr @_ZNK9__gnu_cxx17__normal_iteratorIPN8WasmEdge4LLVM5ValueESt6vectorIS3_SaIS3_EEEdeEv(ptr noundef nonnull align 8 dereferenceable(8) %3) #12
  ret ptr %10
}

; Function Attrs: mustprogress nounwind uwtable
define internal void @_ZN12_GLOBAL__N_116FunctionCompiler13compileLoadOpEjjjN8WasmEdge4LLVM4TypeES3_b(ptr noundef nonnull align 8 dereferenceable(200) %0, i32 noundef %1, i32 noundef %2, i32 noundef %3, ptr noundef %4, ptr noundef %5, i1 noundef zeroext %6) #0 align 2 {
  %8 = alloca ptr, align 8
  %9 = alloca i32, align 4
  %10 = alloca i32, align 4
  %11 = alloca i32, align 4
  %12 = alloca ptr, align 8
  %13 = alloca ptr, align 8
  %14 = alloca i8, align 1
  %15 = alloca %"class.WasmEdge::LLVM::Type", align 8
  %16 = alloca %"class.WasmEdge::LLVM::Value", align 8
  %17 = alloca %"class.WasmEdge::LLVM::Value", align 8
  %18 = alloca %"class.WasmEdge::LLVM::Type", align 8
  %19 = alloca %"class.WasmEdge::LLVM::Value", align 8
  %20 = alloca %"class.WasmEdge::LLVM::Value", align 8
  %21 = alloca %"class.WasmEdge::LLVM::Type", align 8
  store ptr %0, ptr %8, align 8
  store i32 %1, ptr %9, align 4
  store i32 %2, ptr %10, align 4
  store i32 %3, ptr %11, align 4
  store ptr %4, ptr %12, align 8
  store ptr %5, ptr %13, align 8
  %22 = zext i1 %6 to i8
  store i8 %22, ptr %14, align 1
  %23 = load ptr, ptr %8, align 8
  %24 = load i32, ptr %9, align 4
  %25 = load i32, ptr %10, align 4
  %26 = load i32, ptr %11, align 4
  call void @llvm.memcpy.p0.p0.i64(ptr align 8 %15, ptr align 8 %4, i64 8, i1 false)
  call void @_ZN12_GLOBAL__N_116FunctionCompiler13compileLoadOpEjjjN8WasmEdge4LLVM4TypeE(ptr noundef nonnull align 8 dereferenceable(200) %23, i32 noundef %24, i32 noundef %25, i32 noundef %26, ptr noundef %15) #12
  %27 = load i8, ptr %14, align 1
  %28 = trunc i8 %27 to i1
  br i1 %28, label %29, label %36

29:                                               ; preds = %7
  %30 = getelementptr inbounds %"class.(anonymous namespace)::FunctionCompiler", ptr %23, i32 0, i32 12
  %31 = getelementptr inbounds %"class.(anonymous namespace)::FunctionCompiler", ptr %23, i32 0, i32 3
  %32 = call noundef nonnull align 8 dereferenceable(8) ptr @_ZNSt6vectorIN8WasmEdge4LLVM5ValueESaIS2_EE4backEv(ptr noundef nonnull align 8 dereferenceable(24) %31) #12
  call void @llvm.memcpy.p0.p0.i64(ptr align 8 %17, ptr align 8 %32, i64 8, i1 false)
  call void @llvm.memcpy.p0.p0.i64(ptr align 8 %18, ptr align 8 %5, i64 8, i1 false)
  call void @_ZN8WasmEdge4LLVM7Builder10createSExtENS0_5ValueENS0_4TypeEPKc(ptr dead_on_unwind writable sret(%"class.WasmEdge::LLVM::Value") align 8 %16, ptr noundef nonnull align 8 dereferenceable(8) %30, ptr noundef %17, ptr noundef %18, ptr noundef @.str.11) #12
  %33 = getelementptr inbounds %"class.(anonymous namespace)::FunctionCompiler", ptr %23, i32 0, i32 3
  %34 = call noundef nonnull align 8 dereferenceable(8) ptr @_ZNSt6vectorIN8WasmEdge4LLVM5ValueESaIS2_EE4backEv(ptr noundef nonnull align 8 dereferenceable(24) %33) #12
  %35 = call noundef nonnull align 8 dereferenceable(8) ptr @_ZN8WasmEdge4LLVM5ValueaSEOS1_(ptr noundef nonnull align 8 dereferenceable(8) %34, ptr noundef nonnull align 8 dereferenceable(8) %16) #12
  br label %43

36:                                               ; preds = %7
  %37 = getelementptr inbounds %"class.(anonymous namespace)::FunctionCompiler", ptr %23, i32 0, i32 12
  %38 = getelementptr inbounds %"class.(anonymous namespace)::FunctionCompiler", ptr %23, i32 0, i32 3
  %39 = call noundef nonnull align 8 dereferenceable(8) ptr @_ZNSt6vectorIN8WasmEdge4LLVM5ValueESaIS2_EE4backEv(ptr noundef nonnull align 8 dereferenceable(24) %38) #12
  call void @llvm.memcpy.p0.p0.i64(ptr align 8 %20, ptr align 8 %39, i64 8, i1 false)
  call void @llvm.memcpy.p0.p0.i64(ptr align 8 %21, ptr align 8 %5, i64 8, i1 false)
  call void @_ZN8WasmEdge4LLVM7Builder10createZExtENS0_5ValueENS0_4TypeEPKc(ptr dead_on_unwind writable sret(%"class.WasmEdge::LLVM::Value") align 8 %19, ptr noundef nonnull align 8 dereferenceable(8) %37, ptr noundef %20, ptr noundef %21, ptr noundef @.str.11) #12
  %40 = getelementptr inbounds %"class.(anonymous namespace)::FunctionCompiler", ptr %23, i32 0, i32 3
  %41 = call noundef nonnull align 8 dereferenceable(8) ptr @_ZNSt6vectorIN8WasmEdge4LLVM5ValueESaIS2_EE4backEv(ptr noundef nonnull align 8 dereferenceable(24) %40) #12
  %42 = call noundef nonnull align 8 dereferenceable(8) ptr @_ZN8WasmEdge4LLVM5ValueaSEOS1_(ptr noundef nonnull align 8 dereferenceable(8) %41, ptr noundef nonnull align 8 dereferenceable(8) %19) #12
  br label %43

43:                                               ; preds = %36, %29
  ret void
}