; Function Attrs: mustprogress nounwind uwtable
define internal fastcc void @_ZN12_GLOBAL__N_116FunctionCompiler13compileLoadOpEjjjN8WasmEdge4LLVM4TypeES3_b(ptr noundef nonnull align 8 dereferenceable(200) %0, i32 noundef %1, i32 noundef %2, i64 %.0.val, i64 %.0.val1, i1 noundef zeroext %3) unnamed_addr #0 align 2 {
  %5 = alloca %"class.WasmEdge::LLVM::Type", align 8
  store i64 %.0.val, ptr %5, align 8
  call fastcc void @_ZN12_GLOBAL__N_116FunctionCompiler13compileLoadOpEjjjN8WasmEdge4LLVM4TypeE(ptr noundef nonnull align 8 dereferenceable(200) %0, i32 noundef %1, i32 noundef %2, ptr noundef %5) #16
  %6 = getelementptr inbounds nuw i8, ptr %0, i64 192
  %7 = getelementptr inbounds nuw i8, ptr %0, i64 48
  %8 = load ptr, ptr %7, align 8
  %9 = getelementptr inbounds i8, ptr %8, i64 -8
  %10 = load i64, ptr %9, align 8
  %11 = inttoptr i64 %10 to ptr
  %12 = inttoptr i64 %.0.val1 to ptr
  %13 = load ptr, ptr %6, align 8, !noalias !2011
  br i1 %3, label %14, label %16

14:                                               ; preds = %4
  %15 = tail call ptr @LLVMBuildSExt(ptr noundef %13, ptr noundef %11, ptr noundef %12, ptr noundef nonnull @.str.11) #16, !noalias !3748
  br label %18

16:                                               ; preds = %4
  %17 = tail call ptr @LLVMBuildZExt(ptr noundef %13, ptr noundef %11, ptr noundef %12, ptr noundef nonnull @.str.11) #16, !noalias !3751
  br label %18

18:                                               ; preds = %16, %14
  %.sink = phi ptr [ %17, %16 ], [ %15, %14 ]
  %19 = load ptr, ptr %7, align 8
  %20 = getelementptr inbounds i8, ptr %19, i64 -8
  store ptr %.sink, ptr %20, align 8
  ret void
}